TMS320C55x Assembler PC v4.3.8 Wed Nov 09 11:17:58 2016

Tools Copyright (c) 1996-2010 Texas Instruments Incorporated
usbstk5515.asm                                                       PAGE    1

     638              ; Temporary Registers Used: None
       1              ;*******************************************************************************
       2              ;* TMS320C55x C/C++ Codegen                                          PC v4.3.8 *
       3              ;* Date/Time created: Wed Nov 09 11:17:58 2016                                 *
       4              ;*******************************************************************************
       5                      .compiler_opts --hll_source=on --mem_model:code=flat --mem_model:data=large --silicon_core_3_3 --symd
       6                      .mmregs
       7                      .cpl_on
       8                      .arms_on
       9                      .c54cm_off
      10                      .asg AR6, FP
      11                      .asg XAR6, XFP
      12                      .asg DPH, MDP
      13                      .model call=c55_std
      14                      .model mem=large
      15                      .noremark 5002  ; code respects overwrite rules
      16              ;*******************************************************************************
      17              ;* GLOBAL FILE PARAMETERS                                                      *
      18              ;*                                                                             *
      19              ;*   Architecture       : TMS320C55x                                           *
      20              ;*   Optimizing for     : Speed                                                *
      21              ;*   Memory             : Large Model (23-Bit Data Pointers)                   *
      22              ;*   Calls              : Normal Library ASM calls                             *
      23              ;*   Debug Info         : Standard TI Debug Information                        *
      24              ;*******************************************************************************
      25              
      26              $C$DW$CU        .dwtag  DW_TAG_compile_unit
      27                      .dwattr $C$DW$CU, DW_AT_name("../include/usbstk5515.c")
      28                      .dwattr $C$DW$CU, DW_AT_producer("TMS320C55x C/C++ Codegen PC v4.3.8 Copyright (c) 1996-2010 Texas In
      29                      .dwattr $C$DW$CU, DW_AT_TI_version(0x01)
      30                      .dwattr $C$DW$CU, DW_AT_comp_dir("C:\Users\Kiis\Dropbox\Uni\7. semester\AAT7\Code\DSP\aic3204\Debug")
      31              ;       C:\Program Files\TexasInstruments\ccsv4\tools\compiler\c5500\bin\acp55.exe -@C:\Users\Kiis\AppData\Lo
      32 000000               .sect   ".text"
      33                      .global _USBSTK5515_wait
      34              
      35              $C$DW$1 .dwtag  DW_TAG_subprogram, DW_AT_name("USBSTK5515_wait")
      36                      .dwattr $C$DW$1, DW_AT_low_pc(_USBSTK5515_wait)
      37                      .dwattr $C$DW$1, DW_AT_high_pc(0x00)
      38                      .dwattr $C$DW$1, DW_AT_TI_symbol_name("_USBSTK5515_wait")
      39                      .dwattr $C$DW$1, DW_AT_external
      40                      .dwattr $C$DW$1, DW_AT_TI_begin_file("../include/usbstk5515.c")
      41                      .dwattr $C$DW$1, DW_AT_TI_begin_line(0x14)
      42                      .dwattr $C$DW$1, DW_AT_TI_begin_column(0x06)
      43                      .dwattr $C$DW$1, DW_AT_decl_file("../include/usbstk5515.c")
      44                      .dwattr $C$DW$1, DW_AT_decl_line(0x14)
      45                      .dwattr $C$DW$1, DW_AT_decl_column(0x06)
      46                      .dwattr $C$DW$1, DW_AT_TI_max_frame_size(0x06)
      47                      .dwpsn  file "../include/usbstk5515.c",line 21,column 1,is_stmt,address _USBSTK5515_wait
      48              
      49                      .dwfde $C$DW$CIE, _USBSTK5515_wait
      50              $C$DW$2 .dwtag  DW_TAG_formal_parameter, DW_AT_name("delay")
      51                      .dwattr $C$DW$2, DW_AT_TI_symbol_name("_delay")
      52                      .dwattr $C$DW$2, DW_AT_type(*$C$DW$T$13)
      53                      .dwattr $C$DW$2, DW_AT_location[DW_OP_reg0]
      54              ;----------------------------------------------------------------------
TMS320C55x Assembler PC v4.3.8 Wed Nov 09 11:17:58 2016

Tools Copyright (c) 1996-2010 Texas Instruments Incorporated
usbstk5515.asm                                                       PAGE    2

      55              ;  20 | void USBSTK5515_wait( Uint32 delay )                                   
      56              ;----------------------------------------------------------------------
      57              ;*******************************************************************************
      58              ;* FUNCTION NAME: USBSTK5515_wait                                              *
      59              ;*                                                                             *
      60              ;*   Function Uses Regs : AC0,AC0,AC1,AC1,SP,CARRY,TC1,M40,SATA,SATD,RDM,FRCT, *
      61              ;*                        SMUL                                                 *
      62              ;*   Stack Frame        : Compact (No Frame Pointer, w/ debug)                 *
      63              ;*   Total Frame Size   : 6 words                                              *
      64              ;*                        (2 return address/alignment)                         *
      65              ;*                        (4 local values)                                     *
      66              ;*   Min System Stack   : 1 word                                               *
      67              ;*******************************************************************************
      68 000000       _USBSTK5515_wait:
      69                      .dwcfi  cfa_offset, 1
      70                      .dwcfi  save_reg_to_mem, 91, -1
      71 000000 4EFB          AADD #-5, SP
      72                      .dwcfi  cfa_offset, 6
      73              $C$DW$3 .dwtag  DW_TAG_variable, DW_AT_name("delay")
      74                      .dwattr $C$DW$3, DW_AT_TI_symbol_name("_delay")
      75                      .dwattr $C$DW$3, DW_AT_type(*$C$DW$T$13)
      76                      .dwattr $C$DW$3, DW_AT_location[DW_OP_bregx 0x24 0]
      77              $C$DW$4 .dwtag  DW_TAG_variable, DW_AT_name("i")
      78                      .dwattr $C$DW$4, DW_AT_TI_symbol_name("_i")
      79                      .dwattr $C$DW$4, DW_AT_type(*$C$DW$T$24)
      80                      .dwattr $C$DW$4, DW_AT_location[DW_OP_bregx 0x24 2]
      81              ;----------------------------------------------------------------------
      82              ;  22 | volatile Uint32 i;                                                     
      83              ;----------------------------------------------------------------------
      84 000002 EB00          MOV AC0, dbl(*SP(#0)) ; |21| 
         000004 08   
      85                      .dwpsn  file "../include/usbstk5515.c",line 23,column 11,is_stmt
      86              ;----------------------------------------------------------------------
      87              ;  23 | for ( i = 0 ; i < delay ; i++ ){ };                                    
      88              ;----------------------------------------------------------------------
      89 000005 3C00          MOV #0, AC0 ; |23| 
      90 000007 EB04          MOV AC0, dbl(*SP(#2)) ; |23| 
         000009 08   
      91 00000a 20            NOP
      92 00000b 20            NOP
      93 00000c 20            NOP
      94                      .dwpsn  file "../include/usbstk5515.c",line 23,column 19,is_stmt
      95 00000d ED04          MOV dbl(*SP(#2)), AC1 ; |23| 
         00000f 18   
      96 000010 ED00          MOV dbl(*SP(#0)), AC0 ; |23| 
         000012 08   
      97 000013 1218          CMPU AC1 >= AC0, TC1 ; |23| 
         000015 04   
      98 000016 0464          BCC $C$L2,TC1 ; |23| 
         000018 17   
      99                                                      ; branchcc occurs ; |23| 
     100 000019       $C$L1:    
     101 000019       $C$DW$L$_USBSTK5515_wait$2$B:
     102                      .dwpsn  file "../include/usbstk5515.c",line 23,column 31,is_stmt
     103 000019 ED04          MOV dbl(*SP(#2)), AC0 ; |23| 
TMS320C55x Assembler PC v4.3.8 Wed Nov 09 11:17:58 2016

Tools Copyright (c) 1996-2010 Texas Instruments Incorporated
usbstk5515.asm                                                       PAGE    3

         00001b 08   
     104 00001c 4010          ADD #1, AC0 ; |23| 
     105 00001e EB04          MOV AC0, dbl(*SP(#2)) ; |23| 
         000020 08   
     106 000021 20            NOP
     107 000022 20            NOP
     108 000023 20            NOP
     109                      .dwpsn  file "../include/usbstk5515.c",line 23,column 19,is_stmt
     110 000024 ED04          MOV dbl(*SP(#2)), AC1 ; |23| 
         000026 18   
     111 000027 ED00          MOV dbl(*SP(#0)), AC0 ; |23| 
         000029 08   
     112 00002a 1214          CMPU AC1 < AC0, TC1 ; |23| 
         00002c 04   
     113 00002d 0464          BCC $C$L1,TC1 ; |23| 
         00002f E9   
     114                                                      ; branchcc occurs ; |23| 
     115 000030       $C$DW$L$_USBSTK5515_wait$2$E:
     116 000030       $C$L2:    
     117                      .dwpsn  file "../include/usbstk5515.c",line 24,column 1,is_stmt
     118 000030 4E05          AADD #5, SP
     119                      .dwcfi  cfa_offset, 1
     120              $C$DW$5 .dwtag  DW_TAG_TI_branch
     121                      .dwattr $C$DW$5, DW_AT_low_pc(0x00)
     122                      .dwattr $C$DW$5, DW_AT_TI_return
     123 000032 4804          RET
     124                                                      ; return occurs
     125              
     126              $C$DW$6 .dwtag  DW_TAG_TI_loop
     127                      .dwattr $C$DW$6, DW_AT_name("C:\Users\Kiis\Dropbox\Uni\7. semester\AAT7\Code\DSP\aic3204\Debug\usbstk
     128                      .dwattr $C$DW$6, DW_AT_TI_begin_file("../include/usbstk5515.c")
     129                      .dwattr $C$DW$6, DW_AT_TI_begin_line(0x17)
     130                      .dwattr $C$DW$6, DW_AT_TI_end_line(0x17)
     131              $C$DW$7 .dwtag  DW_TAG_TI_loop_range
     132                      .dwattr $C$DW$7, DW_AT_low_pc($C$DW$L$_USBSTK5515_wait$2$B)
     133                      .dwattr $C$DW$7, DW_AT_high_pc($C$DW$L$_USBSTK5515_wait$2$E)
     134                      .dwendtag $C$DW$6
     135              
     136                      .dwattr $C$DW$1, DW_AT_TI_end_file("../include/usbstk5515.c")
     137                      .dwattr $C$DW$1, DW_AT_TI_end_line(0x18)
     138                      .dwattr $C$DW$1, DW_AT_TI_end_column(0x01)
     139                      .dwendentry
     140                      .dwendtag $C$DW$1
     141              
     142 000034               .sect   ".text"
     143                      .global _USBSTK5515_waitusec
     144              
     145              $C$DW$8 .dwtag  DW_TAG_subprogram, DW_AT_name("USBSTK5515_waitusec")
     146                      .dwattr $C$DW$8, DW_AT_low_pc(_USBSTK5515_waitusec)
     147                      .dwattr $C$DW$8, DW_AT_high_pc(0x00)
     148                      .dwattr $C$DW$8, DW_AT_TI_symbol_name("_USBSTK5515_waitusec")
     149                      .dwattr $C$DW$8, DW_AT_external
     150                      .dwattr $C$DW$8, DW_AT_TI_begin_file("../include/usbstk5515.c")
     151                      .dwattr $C$DW$8, DW_AT_TI_begin_line(0x21)
     152                      .dwattr $C$DW$8, DW_AT_TI_begin_column(0x06)
TMS320C55x Assembler PC v4.3.8 Wed Nov 09 11:17:58 2016

Tools Copyright (c) 1996-2010 Texas Instruments Incorporated
usbstk5515.asm                                                       PAGE    4

     153                      .dwattr $C$DW$8, DW_AT_decl_file("../include/usbstk5515.c")
     154                      .dwattr $C$DW$8, DW_AT_decl_line(0x21)
     155                      .dwattr $C$DW$8, DW_AT_decl_column(0x06)
     156                      .dwattr $C$DW$8, DW_AT_TI_max_frame_size(0x04)
     157                      .dwpsn  file "../include/usbstk5515.c",line 34,column 1,is_stmt,address _USBSTK5515_waitusec
     158              
     159                      .dwfde $C$DW$CIE, _USBSTK5515_waitusec
     160              $C$DW$9 .dwtag  DW_TAG_formal_parameter, DW_AT_name("usec")
     161                      .dwattr $C$DW$9, DW_AT_TI_symbol_name("_usec")
     162                      .dwattr $C$DW$9, DW_AT_type(*$C$DW$T$13)
     163                      .dwattr $C$DW$9, DW_AT_location[DW_OP_reg0]
     164              ;----------------------------------------------------------------------
     165              ;  33 | void USBSTK5515_waitusec( Uint32 usec )                                
     166              ;----------------------------------------------------------------------
     167              ;*******************************************************************************
     168              ;* FUNCTION NAME: USBSTK5515_waitusec                                          *
     169              ;*                                                                             *
     170              ;*   Function Uses Regs : AC0,AC0,SP,CARRY,M40,SATA,SATD,RDM,FRCT,SMUL         *
     171              ;*   Stack Frame        : Compact (No Frame Pointer, w/ debug)                 *
     172              ;*   Total Frame Size   : 4 words                                              *
     173              ;*                        (2 return address/alignment)                         *
     174              ;*                        (2 local values)                                     *
     175              ;*   Min System Stack   : 1 word                                               *
     176              ;*******************************************************************************
     177 000034       _USBSTK5515_waitusec:
     178                      .dwcfi  cfa_offset, 1
     179                      .dwcfi  save_reg_to_mem, 91, -1
     180 000034 4EFD          AADD #-3, SP
     181                      .dwcfi  cfa_offset, 4
     182              $C$DW$10        .dwtag  DW_TAG_variable, DW_AT_name("usec")
     183                      .dwattr $C$DW$10, DW_AT_TI_symbol_name("_usec")
     184                      .dwattr $C$DW$10, DW_AT_type(*$C$DW$T$13)
     185                      .dwattr $C$DW$10, DW_AT_location[DW_OP_bregx 0x24 0]
     186 000036 EB00          MOV AC0, dbl(*SP(#0)) ; |34| 
         000038 08   
     187                      .dwpsn  file "../include/usbstk5515.c",line 35,column 5,is_stmt
     188              ;----------------------------------------------------------------------
     189              ;  35 | USBSTK5515_wait( (Uint32)usec * 8 );                                   
     190              ;----------------------------------------------------------------------
     191 000039 ED00          MOV dbl(*SP(#0)), AC0 ; |35| 
         00003b 08   
     192 00003c 1007          SFTL AC0, #3, AC0 ; |35| 
         00003e 03   
     193              $C$DW$11        .dwtag  DW_TAG_TI_branch
     194                      .dwattr $C$DW$11, DW_AT_low_pc(0x00)
     195                      .dwattr $C$DW$11, DW_AT_name("_USBSTK5515_wait")
     196                      .dwattr $C$DW$11, DW_AT_TI_call
     197 00003f 08FF          CALL #_USBSTK5515_wait ; |35| 
         000041 BE   
     198                                                      ; call occurs [#_USBSTK5515_wait] ; |35| 
     199                      .dwpsn  file "../include/usbstk5515.c",line 36,column 1,is_stmt
     200 000042 4E03          AADD #3, SP
     201                      .dwcfi  cfa_offset, 1
     202              $C$DW$12        .dwtag  DW_TAG_TI_branch
     203                      .dwattr $C$DW$12, DW_AT_low_pc(0x00)
TMS320C55x Assembler PC v4.3.8 Wed Nov 09 11:17:58 2016

Tools Copyright (c) 1996-2010 Texas Instruments Incorporated
usbstk5515.asm                                                       PAGE    5

     204                      .dwattr $C$DW$12, DW_AT_TI_return
     205 000044 4804          RET
     206                                                      ; return occurs
     207                      .dwattr $C$DW$8, DW_AT_TI_end_file("../include/usbstk5515.c")
     208                      .dwattr $C$DW$8, DW_AT_TI_end_line(0x24)
     209                      .dwattr $C$DW$8, DW_AT_TI_end_column(0x01)
     210                      .dwendentry
     211                      .dwendtag $C$DW$8
     212              
     213 000046               .sect   ".text"
     214                      .global _USBSTK5515_init
     215              
     216              $C$DW$13        .dwtag  DW_TAG_subprogram, DW_AT_name("USBSTK5515_init")
     217                      .dwattr $C$DW$13, DW_AT_low_pc(_USBSTK5515_init)
     218                      .dwattr $C$DW$13, DW_AT_high_pc(0x00)
     219                      .dwattr $C$DW$13, DW_AT_TI_symbol_name("_USBSTK5515_init")
     220                      .dwattr $C$DW$13, DW_AT_external
     221                      .dwattr $C$DW$13, DW_AT_type(*$C$DW$T$8)
     222                      .dwattr $C$DW$13, DW_AT_TI_begin_file("../include/usbstk5515.c")
     223                      .dwattr $C$DW$13, DW_AT_TI_begin_line(0x2d)
     224                      .dwattr $C$DW$13, DW_AT_TI_begin_column(0x07)
     225                      .dwattr $C$DW$13, DW_AT_decl_file("../include/usbstk5515.c")
     226                      .dwattr $C$DW$13, DW_AT_decl_line(0x2d)
     227                      .dwattr $C$DW$13, DW_AT_decl_column(0x07)
     228                      .dwattr $C$DW$13, DW_AT_TI_max_frame_size(0x01)
     229                      .dwpsn  file "../include/usbstk5515.c",line 46,column 1,is_stmt,address _USBSTK5515_init
     230              
     231                      .dwfde $C$DW$CIE, _USBSTK5515_init
     232              ;----------------------------------------------------------------------
     233              ;  45 | Int16 USBSTK5515_init( )                                               
     234              ;----------------------------------------------------------------------
     235              ;*******************************************************************************
     236              ;* FUNCTION NAME: USBSTK5515_init                                              *
     237              ;*                                                                             *
     238              ;*   Function Uses Regs : T0,SP,M40,SATA,SATD,RDM,FRCT,SMUL                    *
     239              ;*   Stack Frame        : Compact (No Frame Pointer, w/ debug)                 *
     240              ;*   Total Frame Size   : 1 word                                               *
     241              ;*                        (1 return address/alignment)                         *
     242              ;*   Min System Stack   : 1 word                                               *
     243              ;*******************************************************************************
     244 000046       _USBSTK5515_init:
     245                      .dwcfi  cfa_offset, 1
     246                      .dwcfi  save_reg_to_mem, 91, -1
     247                      .dwpsn  file "../include/usbstk5515.c",line 48,column 5,is_stmt
     248              ;----------------------------------------------------------------------
     249              ;  48 | SYS_PCGCR1 = 0x0000;                                                   
     250              ;----------------------------------------------------------------------
     251 000046 E651          MOV #0, *port(#7170) ; |48| 
         000048 001C 
         00004a 02   
     252                      .dwpsn  file "../include/usbstk5515.c",line 49,column 5,is_stmt
     253              ;----------------------------------------------------------------------
     254              ;  49 | SYS_PCGCR2 = 0x0000;                                                   
     255              ;----------------------------------------------------------------------
     256 00004b E651          MOV #0, *port(#7171) ; |49| 
TMS320C55x Assembler PC v4.3.8 Wed Nov 09 11:17:58 2016

Tools Copyright (c) 1996-2010 Texas Instruments Incorporated
usbstk5515.asm                                                       PAGE    6

         00004d 001C 
         00004f 03   
     257                      .dwpsn  file "../include/usbstk5515.c",line 51,column 5,is_stmt
     258              ;----------------------------------------------------------------------
     259              ;  51 | return 0;                                                              
     260              ;----------------------------------------------------------------------
     261 000050 3C04          MOV #0, T0
     262                      .dwpsn  file "../include/usbstk5515.c",line 52,column 1,is_stmt
     263              $C$DW$14        .dwtag  DW_TAG_TI_branch
     264                      .dwattr $C$DW$14, DW_AT_low_pc(0x00)
     265                      .dwattr $C$DW$14, DW_AT_TI_return
     266 000052 4804          RET
     267                                                      ; return occurs
     268                      .dwattr $C$DW$13, DW_AT_TI_end_file("../include/usbstk5515.c")
     269                      .dwattr $C$DW$13, DW_AT_TI_end_line(0x34)
     270                      .dwattr $C$DW$13, DW_AT_TI_end_column(0x01)
     271                      .dwendentry
     272                      .dwendtag $C$DW$13
     273              
     274              
     275              ;*******************************************************************************
     276              ;* TYPE INFORMATION                                                            *
     277              ;*******************************************************************************
     278              $C$DW$T$4       .dwtag  DW_TAG_base_type
     279                      .dwattr $C$DW$T$4, DW_AT_encoding(DW_ATE_boolean)
     280                      .dwattr $C$DW$T$4, DW_AT_name("bool")
     281                      .dwattr $C$DW$T$4, DW_AT_byte_size(0x01)
     282              $C$DW$T$5       .dwtag  DW_TAG_base_type
     283                      .dwattr $C$DW$T$5, DW_AT_encoding(DW_ATE_signed_char)
     284                      .dwattr $C$DW$T$5, DW_AT_name("signed char")
     285                      .dwattr $C$DW$T$5, DW_AT_byte_size(0x01)
     286              $C$DW$T$6       .dwtag  DW_TAG_base_type
     287                      .dwattr $C$DW$T$6, DW_AT_encoding(DW_ATE_unsigned_char)
     288                      .dwattr $C$DW$T$6, DW_AT_name("unsigned char")
     289                      .dwattr $C$DW$T$6, DW_AT_byte_size(0x01)
     290              $C$DW$T$7       .dwtag  DW_TAG_base_type
     291                      .dwattr $C$DW$T$7, DW_AT_encoding(DW_ATE_signed_char)
     292                      .dwattr $C$DW$T$7, DW_AT_name("wchar_t")
     293                      .dwattr $C$DW$T$7, DW_AT_byte_size(0x01)
     294              $C$DW$T$8       .dwtag  DW_TAG_base_type
     295                      .dwattr $C$DW$T$8, DW_AT_encoding(DW_ATE_signed)
     296                      .dwattr $C$DW$T$8, DW_AT_name("short")
     297                      .dwattr $C$DW$T$8, DW_AT_byte_size(0x01)
     298              $C$DW$T$9       .dwtag  DW_TAG_base_type
     299                      .dwattr $C$DW$T$9, DW_AT_encoding(DW_ATE_unsigned)
     300                      .dwattr $C$DW$T$9, DW_AT_name("unsigned short")
     301                      .dwattr $C$DW$T$9, DW_AT_byte_size(0x01)
     302              $C$DW$T$10      .dwtag  DW_TAG_base_type
     303                      .dwattr $C$DW$T$10, DW_AT_encoding(DW_ATE_signed)
     304                      .dwattr $C$DW$T$10, DW_AT_name("int")
     305                      .dwattr $C$DW$T$10, DW_AT_byte_size(0x01)
     306              $C$DW$T$11      .dwtag  DW_TAG_base_type
     307                      .dwattr $C$DW$T$11, DW_AT_encoding(DW_ATE_unsigned)
     308                      .dwattr $C$DW$T$11, DW_AT_name("unsigned int")
     309                      .dwattr $C$DW$T$11, DW_AT_byte_size(0x01)
TMS320C55x Assembler PC v4.3.8 Wed Nov 09 11:17:58 2016

Tools Copyright (c) 1996-2010 Texas Instruments Incorporated
usbstk5515.asm                                                       PAGE    7

     310              $C$DW$T$12      .dwtag  DW_TAG_base_type
     311                      .dwattr $C$DW$T$12, DW_AT_encoding(DW_ATE_signed)
     312                      .dwattr $C$DW$T$12, DW_AT_name("long")
     313                      .dwattr $C$DW$T$12, DW_AT_byte_size(0x02)
     314              $C$DW$T$13      .dwtag  DW_TAG_base_type
     315                      .dwattr $C$DW$T$13, DW_AT_encoding(DW_ATE_unsigned)
     316                      .dwattr $C$DW$T$13, DW_AT_name("unsigned long")
     317                      .dwattr $C$DW$T$13, DW_AT_byte_size(0x02)
     318              $C$DW$15        .dwtag  DW_TAG_TI_far_type
     319                      .dwattr $C$DW$15, DW_AT_type(*$C$DW$T$13)
     320              $C$DW$T$24      .dwtag  DW_TAG_volatile_type
     321                      .dwattr $C$DW$T$24, DW_AT_type(*$C$DW$15)
     322              $C$DW$T$14      .dwtag  DW_TAG_base_type
     323                      .dwattr $C$DW$T$14, DW_AT_encoding(DW_ATE_signed)
     324                      .dwattr $C$DW$T$14, DW_AT_name("long long")
     325                      .dwattr $C$DW$T$14, DW_AT_byte_size(0x04)
     326                      .dwattr $C$DW$T$14, DW_AT_bit_size(0x28)
     327                      .dwattr $C$DW$T$14, DW_AT_bit_offset(0x18)
     328              $C$DW$T$15      .dwtag  DW_TAG_base_type
     329                      .dwattr $C$DW$T$15, DW_AT_encoding(DW_ATE_unsigned)
     330                      .dwattr $C$DW$T$15, DW_AT_name("unsigned long long")
     331                      .dwattr $C$DW$T$15, DW_AT_byte_size(0x04)
     332                      .dwattr $C$DW$T$15, DW_AT_bit_size(0x28)
     333                      .dwattr $C$DW$T$15, DW_AT_bit_offset(0x18)
     334              $C$DW$T$16      .dwtag  DW_TAG_base_type
     335                      .dwattr $C$DW$T$16, DW_AT_encoding(DW_ATE_float)
     336                      .dwattr $C$DW$T$16, DW_AT_name("float")
     337                      .dwattr $C$DW$T$16, DW_AT_byte_size(0x02)
     338              $C$DW$T$17      .dwtag  DW_TAG_base_type
     339                      .dwattr $C$DW$T$17, DW_AT_encoding(DW_ATE_float)
     340                      .dwattr $C$DW$T$17, DW_AT_name("double")
     341                      .dwattr $C$DW$T$17, DW_AT_byte_size(0x02)
     342              $C$DW$T$18      .dwtag  DW_TAG_base_type
     343                      .dwattr $C$DW$T$18, DW_AT_encoding(DW_ATE_float)
     344                      .dwattr $C$DW$T$18, DW_AT_name("long double")
     345                      .dwattr $C$DW$T$18, DW_AT_byte_size(0x02)
     346                      .dwattr $C$DW$CU, DW_AT_language(DW_LANG_C)
     347              
     348              ;***************************************************************
     349              ;* DWARF CIE ENTRIES                                           *
     350              ;***************************************************************
     351              
     352              $C$DW$CIE       .dwcie 91
     353                      .dwcfi  cfa_register, 36
     354                      .dwcfi  cfa_offset, 0
     355                      .dwcfi  undefined, 0
     356                      .dwcfi  undefined, 1
     357                      .dwcfi  undefined, 2
     358                      .dwcfi  undefined, 3
     359                      .dwcfi  undefined, 4
     360                      .dwcfi  undefined, 5
     361                      .dwcfi  undefined, 6
     362                      .dwcfi  undefined, 7
     363                      .dwcfi  undefined, 8
     364                      .dwcfi  undefined, 9
TMS320C55x Assembler PC v4.3.8 Wed Nov 09 11:17:58 2016

Tools Copyright (c) 1996-2010 Texas Instruments Incorporated
usbstk5515.asm                                                       PAGE    8

     365                      .dwcfi  undefined, 10
     366                      .dwcfi  undefined, 11
     367                      .dwcfi  undefined, 12
     368                      .dwcfi  undefined, 13
     369                      .dwcfi  same_value, 14
     370                      .dwcfi  same_value, 15
     371                      .dwcfi  undefined, 16
     372                      .dwcfi  undefined, 17
     373                      .dwcfi  undefined, 18
     374                      .dwcfi  undefined, 19
     375                      .dwcfi  undefined, 20
     376                      .dwcfi  undefined, 21
     377                      .dwcfi  undefined, 22
     378                      .dwcfi  undefined, 23
     379                      .dwcfi  undefined, 24
     380                      .dwcfi  undefined, 25
     381                      .dwcfi  same_value, 26
     382                      .dwcfi  same_value, 27
     383                      .dwcfi  same_value, 28
     384                      .dwcfi  same_value, 29
     385                      .dwcfi  same_value, 30
     386                      .dwcfi  same_value, 31
     387                      .dwcfi  undefined, 32
     388                      .dwcfi  undefined, 33
     389                      .dwcfi  undefined, 34
     390                      .dwcfi  undefined, 35
     391                      .dwcfi  undefined, 36
     392                      .dwcfi  undefined, 37
     393                      .dwcfi  undefined, 38
     394                      .dwcfi  undefined, 39
     395                      .dwcfi  undefined, 40
     396                      .dwcfi  undefined, 41
     397                      .dwcfi  undefined, 42
     398                      .dwcfi  undefined, 43
     399                      .dwcfi  undefined, 44
     400                      .dwcfi  undefined, 45
     401                      .dwcfi  undefined, 46
     402                      .dwcfi  undefined, 47
     403                      .dwcfi  undefined, 48
     404                      .dwcfi  undefined, 49
     405                      .dwcfi  undefined, 50
     406                      .dwcfi  undefined, 51
     407                      .dwcfi  undefined, 52
     408                      .dwcfi  undefined, 53
     409                      .dwcfi  undefined, 54
     410                      .dwcfi  undefined, 55
     411                      .dwcfi  undefined, 56
     412                      .dwcfi  undefined, 57
     413                      .dwcfi  undefined, 58
     414                      .dwcfi  undefined, 59
     415                      .dwcfi  undefined, 60
     416                      .dwcfi  undefined, 61
     417                      .dwcfi  undefined, 62
     418                      .dwcfi  undefined, 63
     419                      .dwcfi  undefined, 64
TMS320C55x Assembler PC v4.3.8 Wed Nov 09 11:17:58 2016

Tools Copyright (c) 1996-2010 Texas Instruments Incorporated
usbstk5515.asm                                                       PAGE    9

     420                      .dwcfi  undefined, 65
     421                      .dwcfi  undefined, 66
     422                      .dwcfi  undefined, 67
     423                      .dwcfi  undefined, 68
     424                      .dwcfi  undefined, 69
     425                      .dwcfi  undefined, 70
     426                      .dwcfi  undefined, 71
     427                      .dwcfi  undefined, 72
     428                      .dwcfi  undefined, 73
     429                      .dwcfi  undefined, 74
     430                      .dwcfi  undefined, 75
     431                      .dwcfi  undefined, 76
     432                      .dwcfi  undefined, 77
     433                      .dwcfi  undefined, 78
     434                      .dwcfi  undefined, 79
     435                      .dwcfi  undefined, 80
     436                      .dwcfi  undefined, 81
     437                      .dwcfi  undefined, 82
     438                      .dwcfi  undefined, 83
     439                      .dwcfi  undefined, 84
     440                      .dwcfi  undefined, 85
     441                      .dwcfi  undefined, 86
     442                      .dwcfi  undefined, 87
     443                      .dwcfi  undefined, 88
     444                      .dwcfi  undefined, 89
     445                      .dwcfi  undefined, 90
     446                      .dwcfi  undefined, 91
     447                      .dwendentry
     448              
     449              ;***************************************************************
     450              ;* DWARF REGISTER MAP                                          *
     451              ;***************************************************************
     452              
     453              $C$DW$16        .dwtag  DW_TAG_TI_assign_register, DW_AT_name("AC0")
     454                      .dwattr $C$DW$16, DW_AT_location[DW_OP_reg0]
     455              $C$DW$17        .dwtag  DW_TAG_TI_assign_register, DW_AT_name("AC0")
     456                      .dwattr $C$DW$17, DW_AT_location[DW_OP_reg1]
     457              $C$DW$18        .dwtag  DW_TAG_TI_assign_register, DW_AT_name("AC0_G")
     458                      .dwattr $C$DW$18, DW_AT_location[DW_OP_reg2]
     459              $C$DW$19        .dwtag  DW_TAG_TI_assign_register, DW_AT_name("AC1")
     460                      .dwattr $C$DW$19, DW_AT_location[DW_OP_reg3]
     461              $C$DW$20        .dwtag  DW_TAG_TI_assign_register, DW_AT_name("AC1")
     462                      .dwattr $C$DW$20, DW_AT_location[DW_OP_reg4]
     463              $C$DW$21        .dwtag  DW_TAG_TI_assign_register, DW_AT_name("AC1_G")
     464                      .dwattr $C$DW$21, DW_AT_location[DW_OP_reg5]
     465              $C$DW$22        .dwtag  DW_TAG_TI_assign_register, DW_AT_name("AC2")
     466                      .dwattr $C$DW$22, DW_AT_location[DW_OP_reg6]
     467              $C$DW$23        .dwtag  DW_TAG_TI_assign_register, DW_AT_name("AC2")
     468                      .dwattr $C$DW$23, DW_AT_location[DW_OP_reg7]
     469              $C$DW$24        .dwtag  DW_TAG_TI_assign_register, DW_AT_name("AC2_G")
     470                      .dwattr $C$DW$24, DW_AT_location[DW_OP_reg8]
     471              $C$DW$25        .dwtag  DW_TAG_TI_assign_register, DW_AT_name("AC3")
     472                      .dwattr $C$DW$25, DW_AT_location[DW_OP_reg9]
     473              $C$DW$26        .dwtag  DW_TAG_TI_assign_register, DW_AT_name("AC3")
     474                      .dwattr $C$DW$26, DW_AT_location[DW_OP_reg10]
TMS320C55x Assembler PC v4.3.8 Wed Nov 09 11:17:58 2016

Tools Copyright (c) 1996-2010 Texas Instruments Incorporated
usbstk5515.asm                                                       PAGE   10

     475              $C$DW$27        .dwtag  DW_TAG_TI_assign_register, DW_AT_name("AC3_G")
     476                      .dwattr $C$DW$27, DW_AT_location[DW_OP_reg11]
     477              $C$DW$28        .dwtag  DW_TAG_TI_assign_register, DW_AT_name("T0")
     478                      .dwattr $C$DW$28, DW_AT_location[DW_OP_reg12]
     479              $C$DW$29        .dwtag  DW_TAG_TI_assign_register, DW_AT_name("T1")
     480                      .dwattr $C$DW$29, DW_AT_location[DW_OP_reg13]
     481              $C$DW$30        .dwtag  DW_TAG_TI_assign_register, DW_AT_name("T2")
     482                      .dwattr $C$DW$30, DW_AT_location[DW_OP_reg14]
     483              $C$DW$31        .dwtag  DW_TAG_TI_assign_register, DW_AT_name("T3")
     484                      .dwattr $C$DW$31, DW_AT_location[DW_OP_reg15]
     485              $C$DW$32        .dwtag  DW_TAG_TI_assign_register, DW_AT_name("AR0")
     486                      .dwattr $C$DW$32, DW_AT_location[DW_OP_reg16]
     487              $C$DW$33        .dwtag  DW_TAG_TI_assign_register, DW_AT_name("XAR0")
     488                      .dwattr $C$DW$33, DW_AT_location[DW_OP_reg17]
     489              $C$DW$34        .dwtag  DW_TAG_TI_assign_register, DW_AT_name("AR1")
     490                      .dwattr $C$DW$34, DW_AT_location[DW_OP_reg18]
     491              $C$DW$35        .dwtag  DW_TAG_TI_assign_register, DW_AT_name("XAR1")
     492                      .dwattr $C$DW$35, DW_AT_location[DW_OP_reg19]
     493              $C$DW$36        .dwtag  DW_TAG_TI_assign_register, DW_AT_name("AR2")
     494                      .dwattr $C$DW$36, DW_AT_location[DW_OP_reg20]
     495              $C$DW$37        .dwtag  DW_TAG_TI_assign_register, DW_AT_name("XAR2")
     496                      .dwattr $C$DW$37, DW_AT_location[DW_OP_reg21]
     497              $C$DW$38        .dwtag  DW_TAG_TI_assign_register, DW_AT_name("AR3")
     498                      .dwattr $C$DW$38, DW_AT_location[DW_OP_reg22]
     499              $C$DW$39        .dwtag  DW_TAG_TI_assign_register, DW_AT_name("XAR3")
     500                      .dwattr $C$DW$39, DW_AT_location[DW_OP_reg23]
     501              $C$DW$40        .dwtag  DW_TAG_TI_assign_register, DW_AT_name("AR4")
     502                      .dwattr $C$DW$40, DW_AT_location[DW_OP_reg24]
     503              $C$DW$41        .dwtag  DW_TAG_TI_assign_register, DW_AT_name("XAR4")
     504                      .dwattr $C$DW$41, DW_AT_location[DW_OP_reg25]
     505              $C$DW$42        .dwtag  DW_TAG_TI_assign_register, DW_AT_name("AR5")
     506                      .dwattr $C$DW$42, DW_AT_location[DW_OP_reg26]
     507              $C$DW$43        .dwtag  DW_TAG_TI_assign_register, DW_AT_name("XAR5")
     508                      .dwattr $C$DW$43, DW_AT_location[DW_OP_reg27]
     509              $C$DW$44        .dwtag  DW_TAG_TI_assign_register, DW_AT_name("AR6")
     510                      .dwattr $C$DW$44, DW_AT_location[DW_OP_reg28]
     511              $C$DW$45        .dwtag  DW_TAG_TI_assign_register, DW_AT_name("XAR6")
     512                      .dwattr $C$DW$45, DW_AT_location[DW_OP_reg29]
     513              $C$DW$46        .dwtag  DW_TAG_TI_assign_register, DW_AT_name("AR7")
     514                      .dwattr $C$DW$46, DW_AT_location[DW_OP_reg30]
     515              $C$DW$47        .dwtag  DW_TAG_TI_assign_register, DW_AT_name("XAR7")
     516                      .dwattr $C$DW$47, DW_AT_location[DW_OP_reg31]
     517              $C$DW$48        .dwtag  DW_TAG_TI_assign_register, DW_AT_name("FP")
     518                      .dwattr $C$DW$48, DW_AT_location[DW_OP_regx 0x20]
     519              $C$DW$49        .dwtag  DW_TAG_TI_assign_register, DW_AT_name("XFP")
     520                      .dwattr $C$DW$49, DW_AT_location[DW_OP_regx 0x21]
     521              $C$DW$50        .dwtag  DW_TAG_TI_assign_register, DW_AT_name("PC")
     522                      .dwattr $C$DW$50, DW_AT_location[DW_OP_regx 0x22]
     523              $C$DW$51        .dwtag  DW_TAG_TI_assign_register, DW_AT_name("SP")
     524                      .dwattr $C$DW$51, DW_AT_location[DW_OP_regx 0x23]
     525              $C$DW$52        .dwtag  DW_TAG_TI_assign_register, DW_AT_name("XSP")
     526                      .dwattr $C$DW$52, DW_AT_location[DW_OP_regx 0x24]
     527              $C$DW$53        .dwtag  DW_TAG_TI_assign_register, DW_AT_name("BKC")
     528                      .dwattr $C$DW$53, DW_AT_location[DW_OP_regx 0x25]
     529              $C$DW$54        .dwtag  DW_TAG_TI_assign_register, DW_AT_name("BK03")
TMS320C55x Assembler PC v4.3.8 Wed Nov 09 11:17:58 2016

Tools Copyright (c) 1996-2010 Texas Instruments Incorporated
usbstk5515.asm                                                       PAGE   11

     530                      .dwattr $C$DW$54, DW_AT_location[DW_OP_regx 0x26]
     531              $C$DW$55        .dwtag  DW_TAG_TI_assign_register, DW_AT_name("BK47")
     532                      .dwattr $C$DW$55, DW_AT_location[DW_OP_regx 0x27]
     533              $C$DW$56        .dwtag  DW_TAG_TI_assign_register, DW_AT_name("ST0")
     534                      .dwattr $C$DW$56, DW_AT_location[DW_OP_regx 0x28]
     535              $C$DW$57        .dwtag  DW_TAG_TI_assign_register, DW_AT_name("ST1")
     536                      .dwattr $C$DW$57, DW_AT_location[DW_OP_regx 0x29]
     537              $C$DW$58        .dwtag  DW_TAG_TI_assign_register, DW_AT_name("ST2")
     538                      .dwattr $C$DW$58, DW_AT_location[DW_OP_regx 0x2a]
     539              $C$DW$59        .dwtag  DW_TAG_TI_assign_register, DW_AT_name("ST3")
     540                      .dwattr $C$DW$59, DW_AT_location[DW_OP_regx 0x2b]
     541              $C$DW$60        .dwtag  DW_TAG_TI_assign_register, DW_AT_name("MDP")
     542                      .dwattr $C$DW$60, DW_AT_location[DW_OP_regx 0x2c]
     543              $C$DW$61        .dwtag  DW_TAG_TI_assign_register, DW_AT_name("MDP05")
     544                      .dwattr $C$DW$61, DW_AT_location[DW_OP_regx 0x2d]
     545              $C$DW$62        .dwtag  DW_TAG_TI_assign_register, DW_AT_name("MDP67")
     546                      .dwattr $C$DW$62, DW_AT_location[DW_OP_regx 0x2e]
     547              $C$DW$63        .dwtag  DW_TAG_TI_assign_register, DW_AT_name("BRC0")
     548                      .dwattr $C$DW$63, DW_AT_location[DW_OP_regx 0x2f]
     549              $C$DW$64        .dwtag  DW_TAG_TI_assign_register, DW_AT_name("RSA0")
     550                      .dwattr $C$DW$64, DW_AT_location[DW_OP_regx 0x30]
     551              $C$DW$65        .dwtag  DW_TAG_TI_assign_register, DW_AT_name("RSA0_H")
     552                      .dwattr $C$DW$65, DW_AT_location[DW_OP_regx 0x31]
     553              $C$DW$66        .dwtag  DW_TAG_TI_assign_register, DW_AT_name("REA0")
     554                      .dwattr $C$DW$66, DW_AT_location[DW_OP_regx 0x32]
     555              $C$DW$67        .dwtag  DW_TAG_TI_assign_register, DW_AT_name("REA0_H")
     556                      .dwattr $C$DW$67, DW_AT_location[DW_OP_regx 0x33]
     557              $C$DW$68        .dwtag  DW_TAG_TI_assign_register, DW_AT_name("BRS1")
     558                      .dwattr $C$DW$68, DW_AT_location[DW_OP_regx 0x34]
     559              $C$DW$69        .dwtag  DW_TAG_TI_assign_register, DW_AT_name("BRC1")
     560                      .dwattr $C$DW$69, DW_AT_location[DW_OP_regx 0x35]
     561              $C$DW$70        .dwtag  DW_TAG_TI_assign_register, DW_AT_name("RSA1")
     562                      .dwattr $C$DW$70, DW_AT_location[DW_OP_regx 0x36]
     563              $C$DW$71        .dwtag  DW_TAG_TI_assign_register, DW_AT_name("RSA1_H")
     564                      .dwattr $C$DW$71, DW_AT_location[DW_OP_regx 0x37]
     565              $C$DW$72        .dwtag  DW_TAG_TI_assign_register, DW_AT_name("REA1")
     566                      .dwattr $C$DW$72, DW_AT_location[DW_OP_regx 0x38]
     567              $C$DW$73        .dwtag  DW_TAG_TI_assign_register, DW_AT_name("REA1_H")
     568                      .dwattr $C$DW$73, DW_AT_location[DW_OP_regx 0x39]
     569              $C$DW$74        .dwtag  DW_TAG_TI_assign_register, DW_AT_name("CSR")
     570                      .dwattr $C$DW$74, DW_AT_location[DW_OP_regx 0x3a]
     571              $C$DW$75        .dwtag  DW_TAG_TI_assign_register, DW_AT_name("RPTC")
     572                      .dwattr $C$DW$75, DW_AT_location[DW_OP_regx 0x3b]
     573              $C$DW$76        .dwtag  DW_TAG_TI_assign_register, DW_AT_name("CDP")
     574                      .dwattr $C$DW$76, DW_AT_location[DW_OP_regx 0x3c]
     575              $C$DW$77        .dwtag  DW_TAG_TI_assign_register, DW_AT_name("XCDP")
     576                      .dwattr $C$DW$77, DW_AT_location[DW_OP_regx 0x3d]
     577              $C$DW$78        .dwtag  DW_TAG_TI_assign_register, DW_AT_name("TRN0")
     578                      .dwattr $C$DW$78, DW_AT_location[DW_OP_regx 0x3e]
     579              $C$DW$79        .dwtag  DW_TAG_TI_assign_register, DW_AT_name("TRN1")
     580                      .dwattr $C$DW$79, DW_AT_location[DW_OP_regx 0x3f]
     581              $C$DW$80        .dwtag  DW_TAG_TI_assign_register, DW_AT_name("BSA01")
     582                      .dwattr $C$DW$80, DW_AT_location[DW_OP_regx 0x40]
     583              $C$DW$81        .dwtag  DW_TAG_TI_assign_register, DW_AT_name("BSA23")
     584                      .dwattr $C$DW$81, DW_AT_location[DW_OP_regx 0x41]
TMS320C55x Assembler PC v4.3.8 Wed Nov 09 11:17:58 2016

Tools Copyright (c) 1996-2010 Texas Instruments Incorporated
usbstk5515.asm                                                       PAGE   12

     585              $C$DW$82        .dwtag  DW_TAG_TI_assign_register, DW_AT_name("BSA45")
     586                      .dwattr $C$DW$82, DW_AT_location[DW_OP_regx 0x42]
     587              $C$DW$83        .dwtag  DW_TAG_TI_assign_register, DW_AT_name("BSA67")
     588                      .dwattr $C$DW$83, DW_AT_location[DW_OP_regx 0x43]
     589              $C$DW$84        .dwtag  DW_TAG_TI_assign_register, DW_AT_name("BSAC")
     590                      .dwattr $C$DW$84, DW_AT_location[DW_OP_regx 0x44]
     591              $C$DW$85        .dwtag  DW_TAG_TI_assign_register, DW_AT_name("CARRY")
     592                      .dwattr $C$DW$85, DW_AT_location[DW_OP_regx 0x45]
     593              $C$DW$86        .dwtag  DW_TAG_TI_assign_register, DW_AT_name("TC1")
     594                      .dwattr $C$DW$86, DW_AT_location[DW_OP_regx 0x46]
     595              $C$DW$87        .dwtag  DW_TAG_TI_assign_register, DW_AT_name("TC2")
     596                      .dwattr $C$DW$87, DW_AT_location[DW_OP_regx 0x47]
     597              $C$DW$88        .dwtag  DW_TAG_TI_assign_register, DW_AT_name("M40")
     598                      .dwattr $C$DW$88, DW_AT_location[DW_OP_regx 0x48]
     599              $C$DW$89        .dwtag  DW_TAG_TI_assign_register, DW_AT_name("SXMD")
     600                      .dwattr $C$DW$89, DW_AT_location[DW_OP_regx 0x49]
     601              $C$DW$90        .dwtag  DW_TAG_TI_assign_register, DW_AT_name("ARMS")
     602                      .dwattr $C$DW$90, DW_AT_location[DW_OP_regx 0x4a]
     603              $C$DW$91        .dwtag  DW_TAG_TI_assign_register, DW_AT_name("C54CM")
     604                      .dwattr $C$DW$91, DW_AT_location[DW_OP_regx 0x4b]
     605              $C$DW$92        .dwtag  DW_TAG_TI_assign_register, DW_AT_name("SATA")
     606                      .dwattr $C$DW$92, DW_AT_location[DW_OP_regx 0x4c]
     607              $C$DW$93        .dwtag  DW_TAG_TI_assign_register, DW_AT_name("SATD")
     608                      .dwattr $C$DW$93, DW_AT_location[DW_OP_regx 0x4d]
     609              $C$DW$94        .dwtag  DW_TAG_TI_assign_register, DW_AT_name("RDM")
     610                      .dwattr $C$DW$94, DW_AT_location[DW_OP_regx 0x4e]
     611              $C$DW$95        .dwtag  DW_TAG_TI_assign_register, DW_AT_name("FRCT")
     612                      .dwattr $C$DW$95, DW_AT_location[DW_OP_regx 0x4f]
     613              $C$DW$96        .dwtag  DW_TAG_TI_assign_register, DW_AT_name("SMUL")
     614                      .dwattr $C$DW$96, DW_AT_location[DW_OP_regx 0x50]
     615              $C$DW$97        .dwtag  DW_TAG_TI_assign_register, DW_AT_name("INTM")
     616                      .dwattr $C$DW$97, DW_AT_location[DW_OP_regx 0x51]
     617              $C$DW$98        .dwtag  DW_TAG_TI_assign_register, DW_AT_name("AR0LC")
     618                      .dwattr $C$DW$98, DW_AT_location[DW_OP_regx 0x52]
     619              $C$DW$99        .dwtag  DW_TAG_TI_assign_register, DW_AT_name("AR1LC")
     620                      .dwattr $C$DW$99, DW_AT_location[DW_OP_regx 0x53]
     621              $C$DW$100       .dwtag  DW_TAG_TI_assign_register, DW_AT_name("AR2LC")
     622                      .dwattr $C$DW$100, DW_AT_location[DW_OP_regx 0x54]
     623              $C$DW$101       .dwtag  DW_TAG_TI_assign_register, DW_AT_name("AR3LC")
     624                      .dwattr $C$DW$101, DW_AT_location[DW_OP_regx 0x55]
     625              $C$DW$102       .dwtag  DW_TAG_TI_assign_register, DW_AT_name("AR4LC")
     626                      .dwattr $C$DW$102, DW_AT_location[DW_OP_regx 0x56]
     627              $C$DW$103       .dwtag  DW_TAG_TI_assign_register, DW_AT_name("AR5LC")
     628                      .dwattr $C$DW$103, DW_AT_location[DW_OP_regx 0x57]
     629              $C$DW$104       .dwtag  DW_TAG_TI_assign_register, DW_AT_name("AR6LC")
     630                      .dwattr $C$DW$104, DW_AT_location[DW_OP_regx 0x58]
     631              $C$DW$105       .dwtag  DW_TAG_TI_assign_register, DW_AT_name("AR7LC")
     632                      .dwattr $C$DW$105, DW_AT_location[DW_OP_regx 0x59]
     633              $C$DW$106       .dwtag  DW_TAG_TI_assign_register, DW_AT_name("CDPLC")
     634                      .dwattr $C$DW$106, DW_AT_location[DW_OP_regx 0x5a]
     635              $C$DW$107       .dwtag  DW_TAG_TI_assign_register, DW_AT_name("CIE_RETA")
     636                      .dwattr $C$DW$107, DW_AT_location[DW_OP_regx 0x5b]
     637                      .dwendtag $C$DW$CU
     638              
     638              
TMS320C55x Assembler PC v4.3.8 Wed Nov 09 11:17:58 2016

Tools Copyright (c) 1996-2010 Texas Instruments Incorporated
usbstk5515.asm                                                       PAGE   13

     638              

No Assembly Errors, No Assembly Warnings
